; Function Attrs: mustprogress nounwind uwtable
define dso_local noundef zeroext i1 @_ZN5clang8comments4Sema26isTemplateOrSpecializationEv(ptr nocapture noundef nonnull readonly align 8 dereferenceable(168) %0) local_unnamed_addr #0 align 2 {
  %2 = getelementptr inbounds nuw i8, ptr %0, i64 40
  %3 = load ptr, ptr %2, align 8
  %.not = icmp eq ptr %3, null
  br i1 %.not, label %13, label %4

4:                                                ; preds = %1
  %5 = getelementptr inbounds nuw i8, ptr %3, i64 48
  %6 = load i16, ptr %5, align 8
  %7 = and i16 %6, 1
  %.not3 = icmp eq i16 %7, 0
  br i1 %.not3, label %8, label %9

8:                                                ; preds = %4
  tail call void @_ZN5clang8comments8DeclInfo4fillEv(ptr noundef nonnull align 8 dereferenceable(50) %3) #17
  %.pre = load ptr, ptr %2, align 8
  %.phi.trans.insert = getelementptr inbounds nuw i8, ptr %.pre, i64 48
  %.pre4 = load i16, ptr %.phi.trans.insert, align 8
  br label %9

9:                                                ; preds = %8, %4
  %10 = phi i16 [ %.pre4, %8 ], [ %6, %4 ]
  %11 = and i16 %10, 48
  %12 = icmp ne i16 %11, 0
  br label %13

13:                                               ; preds = %1, %9
  %.0 = phi i1 [ %12, %9 ], [ false, %1 ]
  ret i1 %.0
}